Certificate:
    Data:
        Version: 3 (0x2)
        Serial Number:
            06:d1:aa:6a:54:79:b6:89:f8:4b:7b:8e:f4:e9:67:3d
    Signature Algorithm: sha256WithRSAEncryption
        Issuer: CN=Easy-RSA CA
        Validity
            Not Before: Jun 26 12:17:55 2017 GMT
            Not After : Jun 24 12:17:55 2027 GMT
        Subject: CN=client
        Subject Public Key Info:
            Public Key Algorithm: rsaEncryption
                Public-Key: (2048 bit)
                Modulus:
                    00:da:ed:86:a5:f8:7b:d9:1a:d8:a2:38:2a:2d:78:
                    b2:6c:d5:d0:dc:ef:e8:95:5a:ae:81:31:34:e5:6b:
                    43:c6:8c:be:13:d5:71:22:af:57:12:19:aa:1e:f6:
                    9b:3a:13:c4:b1:00:b9:84:d7:ab:af:c7:70:93:ae:
                    38:d4:a7:4a:d7:54:10:90:55:e3:ba:a7:03:74:4a:
                    3f:23:03:e0:00:2d:23:5a:d1:4a:73:2a:b6:4d:c0:
                    3f:1d:cf:15:10:cd:1e:a3:e5:9a:eb:84:05:0d:18:
                    96:db:e0:de:3f:02:00:68:13:82:f6:9c:09:b3:66:
                    9b:95:72:27:c8:1c:a2:2a:0f:15:11:2b:23:36:5a:
                    4d:a8:f9:d7:55:ad:1c:15:a2:73:74:f6:25:60:27:
                    71:f6:8c:32:72:60:af:c3:4e:df:56:1c:b3:de:48:
                    2e:27:5a:d7:12:d7:7d:af:a7:ed:28:12:4d:19:1d:
                    33:13:c6:9c:e1:79:fb:fa:18:a9:94:68:9d:cd:3c:
                    81:54:d3:09:19:dc:1e:86:94:bd:d9:d5:41:76:e8:
                    82:3f:ee:c0:73:43:72:0c:e6:39:da:30:c6:40:ad:
                    da:c2:0b:02:35:a8:90:06:0b:c7:14:2c:bb:c6:bd:
                    db:36:7f:5a:58:0c:1a:3f:92:f0:9a:93:5a:4e:14:
                    83:6d
                Exponent: 65537 (0x10001)
        X509v3 extensions:
            X509v3 Basic Constraints: 
                CA:FALSE
            X509v3 Subject Key Identifier: 
                4A:CB:63:3D:C3:68:14:69:19:14:47:9F:85:84:9A:BE:D8:50:BF:3A
            X509v3 Authority Key Identifier: 
                keyid:C3:12:25:BF:13:6A:BF:04:5A:19:12:50:A4:94:E0:27:00:61:87:29
                DirName:/CN=Easy-RSA CA
                serial:82:26:97:1D:67:5F:30:3F

            X509v3 Extended Key Usage: 
                TLS Web Client Authentication
            X509v3 Key Usage: 
                Digital Signature
    Signature Algorithm: sha256WithRSAEncryption
         81:99:29:1f:4d:e9:59:75:4b:df:f4:6b:d0:83:89:44:25:cd:
         06:0b:8b:ff:8f:40:03:02:cf:d3:3c:d6:75:a4:5f:a8:3b:7f:
         3e:2b:58:f2:67:46:6a:fa:64:d1:ec:e8:e7:80:cc:c5:7c:25:
         c5:74:26:c5:3f:57:2c:d6:c7:d0:3a:5e:7e:1e:9d:5a:b1:c0:
         b0:d1:8f:70:a5:69:e4:fa:56:e4:fa:29:04:c1:f2:24:b2:b7:
         c5:d3:2c:07:8c:96:3d:36:e2:7a:83:05:7c:0a:ef:9a:81:6d:
         b9:c9:3f:14:99:f4:c3:09:e7:75:68:ac:4e:14:39:e3:e2:8a:
         da:1e:b6:aa:9f:5d:a5:e3:14:7f:a3:6e:d1:1f:08:db:7f:5b:
         66:b4:34:31:ca:3d:d6:b2:50:63:56:bd:b1:ec:2b:28:e7:ed:
         a6:68:10:20:09:45:7f:6e:9d:f1:48:e2:1c:ea:c7:44:ad:b5:
         ae:2d:27:7d:2b:ee:f9:4f:a5:9c:a9:66:f6:4d:b0:75:a7:00:
         2e:f3:60:fd:5f:67:94:91:48:f3:42:75:86:0f:e7:74:74:d7:
         45:49:75:f8:43:42:f5:06:95:c0:56:fe:21:c9:5a:d9:7c:e1:
         9f:bc:e8:75:67:6c:13:92:55:d5:3b:d7:00:da:b6:a4:da:8b:
         d9:d8:4e:c2
-----BEGIN CERTIFICATE-----
MIIDSTCCAjGgAwIBAgIQBtGqalR5ton4S3uO9OlnPTANBgkqhkiG9w0BAQsFADAW
MRQwEgYDVQQDEwtFYXN5LVJTQSBDQTAeFw0xNzA2MjYxMjE3NTVaFw0yNzA2MjQx
MjE3NTVaMBExDzANBgNVBAMTBmNsaWVudDCCASIwDQYJKoZIhvcNAQEBBQADggEP
ADCCAQoCggEBANrthqX4e9ka2KI4Ki14smzV0Nzv6JVaroExNOVrQ8aMvhPVcSKv
VxIZqh72mzoTxLEAuYTXq6/HcJOuONSnStdUEJBV47qnA3RKPyMD4AAtI1rRSnMq
tk3APx3PFRDNHqPlmuuEBQ0Yltvg3j8CAGgTgvacCbNmm5VyJ8gcoioPFRErIzZa
Taj511WtHBWic3T2JWAncfaMMnJgr8NO31Ycs95ILida1xLXfa+n7SgSTRkdMxPG
nOF5+/oYqZRonc08gVTTCRncHoaUvdnVQXbogj/uwHNDcgzmOdowxkCt2sILAjWo
kAYLxxQsu8a92zZ/WlgMGj+S8JqTWk4Ug20CAwEAAaOBlzCBlDAJBgNVHRMEAjAA
MB0GA1UdDgQWBBRKy2M9w2gUaRkUR5+FhJq+2FC/OjBGBgNVHSMEPzA9gBTDEiW/
E2q/BFoZElCklOAnAGGHKaEapBgwFjEUMBIGA1UEAxMLRWFzeS1SU0EgQ0GCCQCC
JpcdZ18wPzATBgNVHSUEDDAKBggrBgEFBQcDAjALBgNVHQ8EBAMCB4AwDQYJKoZI
hvcNAQELBQADggEBAIGZKR9N6Vl1S9/0a9CDiUQlzQYLi/+PQAMCz9M81nWkX6g7
fz4rWPJnRmr6ZNHs6OeAzMV8JcV0JsU/VyzWx9A6Xn4enVqxwLDRj3ClaeT6VuT6
KQTB8iSyt8XTLAeMlj024nqDBXwK75qBbbnJPxSZ9MMJ53VorE4UOePiitoetqqf
XaXjFH+jbtEfCNt/W2a0NDHKPdayUGNWvbHsKyjn7aZoECAJRX9unfFI4hzqx0St
ta4tJ30r7vlPpZypZvZNsHWnAC7zYP1fZ5SRSPNCdYYP53R010VJdfhDQvUGlcBW
/iHJWtl84Z+86HVnbBOSVdU71wDatqTai9nYTsI=
-----END CERTIFICATE-----
