Certificate:
    Data:
        Version: 3 (0x2)
        Serial Number:
            71:12:c0:4c:23:48:e3:15:d9:72:95:b5:89:38:cd:ae
    Signature Algorithm: sha256WithRSAEncryption
        Issuer: CN=Easy-RSA CA
        Validity
            Not Before: Jun 26 12:18:05 2017 GMT
            Not After : Jun 24 12:18:05 2027 GMT
        Subject: CN=server
        Subject Public Key Info:
            Public Key Algorithm: rsaEncryption
                Public-Key: (2048 bit)
                Modulus:
                    00:bc:d6:f9:86:4c:57:57:d3:33:6a:e6:e7:41:c9:
                    85:19:eb:c8:42:c0:7a:1a:ca:84:e5:73:ee:66:4d:
                    7c:18:05:38:01:e1:b6:e2:fc:9c:ea:10:27:bf:c0:
                    5b:a5:86:e1:fb:9d:fa:9d:83:0a:0b:2c:3d:f4:e7:
                    5b:6e:8b:8e:13:de:ce:78:1c:fe:b5:d9:ac:63:f4:
                    b9:5d:98:bc:2c:a9:f4:ef:06:51:8a:2a:02:f1:bf:
                    c2:31:8b:65:cc:3a:a7:66:cc:cf:1c:cf:c1:2b:63:
                    61:da:cb:13:1e:f0:f6:af:04:c3:82:7e:22:13:9c:
                    8e:99:be:c3:ad:38:c0:5c:04:2f:17:ea:c8:6f:a1:
                    d0:e6:af:e0:93:83:6a:89:e9:ae:c5:56:05:1c:4a:
                    a2:d6:bc:13:59:26:d5:d3:bf:b8:4d:25:1c:58:74:
                    b8:80:c6:6f:c0:dd:68:6e:4f:ef:76:07:1a:45:41:
                    61:f1:25:34:a5:a7:8c:d0:07:14:63:f3:9b:87:59:
                    d9:18:91:56:de:10:1e:ec:7e:4f:e4:04:1c:8c:ed:
                    dc:d2:ed:73:c3:3f:25:cb:2d:bf:b9:96:bc:3b:a3:
                    85:e8:9b:0b:9a:e4:f6:50:8b:72:99:38:44:80:f2:
                    94:a7:31:4e:bd:da:ba:7e:49:05:2e:80:b0:1d:86:
                    17:3d
                Exponent: 65537 (0x10001)
        X509v3 extensions:
            X509v3 Basic Constraints: 
                CA:FALSE
            X509v3 Subject Key Identifier: 
                CF:C8:9D:2F:45:62:4C:4B:51:E8:C0:3B:ED:2F:11:9A:3A:36:CB:AD
            X509v3 Authority Key Identifier: 
                keyid:C3:12:25:BF:13:6A:BF:04:5A:19:12:50:A4:94:E0:27:00:61:87:29
                DirName:/CN=Easy-RSA CA
                serial:82:26:97:1D:67:5F:30:3F

            X509v3 Extended Key Usage: 
                TLS Web Server Authentication
            X509v3 Key Usage: 
                Digital Signature, Key Encipherment
    Signature Algorithm: sha256WithRSAEncryption
         6a:58:77:b0:e9:38:66:f3:91:ef:48:c9:45:49:94:d6:e8:57:
         3d:12:99:31:b0:f7:94:48:10:35:e3:8c:50:d8:b4:59:f6:6d:
         20:84:bc:34:76:02:56:5c:d5:4d:c1:a3:3a:7b:a5:e7:cb:24:
         4e:bf:fb:fc:c5:96:eb:74:f4:60:ab:cf:19:64:eb:b0:ca:87:
         eb:1b:28:e0:84:e2:03:1a:70:99:13:83:49:13:59:ea:21:a1:
         ff:54:b4:77:4a:04:e0:ea:08:bd:6c:43:2b:76:63:cf:ed:e9:
         5a:ae:6b:3e:c8:31:2c:c9:c3:25:c1:74:39:e8:65:cb:6f:d6:
         38:bb:1e:d5:32:08:3f:51:5f:07:d6:8f:d0:8d:2c:bb:e9:6f:
         16:ea:60:05:75:23:d0:78:79:53:90:9e:f8:31:1a:2b:81:db:
         da:ad:00:6f:00:e7:10:60:9c:84:5a:bd:12:85:37:5c:22:94:
         21:70:13:24:0d:fb:f3:41:0a:f7:87:61:81:bc:d5:6a:f2:81:
         14:4b:d0:94:19:57:6a:5c:64:6d:01:f5:5d:95:11:91:a2:37:
         51:7d:2d:9f:8c:95:38:3b:36:e5:c6:2c:2d:d6:58:5a:7c:5a:
         94:fb:27:1d:22:ab:7e:01:04:03:59:0b:c9:6d:d0:2f:df:e9:
         e3:87:39:b3
-----BEGIN CERTIFICATE-----
MIIDSTCCAjGgAwIBAgIQcRLATCNI4xXZcpW1iTjNrjANBgkqhkiG9w0BAQsFADAW
MRQwEgYDVQQDEwtFYXN5LVJTQSBDQTAeFw0xNzA2MjYxMjE4MDVaFw0yNzA2MjQx
MjE4MDVaMBExDzANBgNVBAMTBnNlcnZlcjCCASIwDQYJKoZIhvcNAQEBBQADggEP
ADCCAQoCggEBALzW+YZMV1fTM2rm50HJhRnryELAehrKhOVz7mZNfBgFOAHhtuL8
nOoQJ7/AW6WG4fud+p2DCgssPfTnW26LjhPezngc/rXZrGP0uV2YvCyp9O8GUYoq
AvG/wjGLZcw6p2bMzxzPwStjYdrLEx7w9q8Ew4J+IhOcjpm+w604wFwELxfqyG+h
0Oav4JODaonprsVWBRxKota8E1km1dO/uE0lHFh0uIDGb8DdaG5P73YHGkVBYfEl
NKWnjNAHFGPzm4dZ2RiRVt4QHux+T+QEHIzt3NLtc8M/Jcstv7mWvDujheibC5rk
9lCLcpk4RIDylKcxTr3aun5JBS6AsB2GFz0CAwEAAaOBlzCBlDAJBgNVHRMEAjAA
MB0GA1UdDgQWBBTPyJ0vRWJMS1HowDvtLxGaOjbLrTBGBgNVHSMEPzA9gBTDEiW/
E2q/BFoZElCklOAnAGGHKaEapBgwFjEUMBIGA1UEAxMLRWFzeS1SU0EgQ0GCCQCC
JpcdZ18wPzATBgNVHSUEDDAKBggrBgEFBQcDATALBgNVHQ8EBAMCBaAwDQYJKoZI
hvcNAQELBQADggEBAGpYd7DpOGbzke9IyUVJlNboVz0SmTGw95RIEDXjjFDYtFn2
bSCEvDR2AlZc1U3Bozp7pefLJE6/+/zFlut09GCrzxlk67DKh+sbKOCE4gMacJkT
g0kTWeohof9UtHdKBODqCL1sQyt2Y8/t6Vquaz7IMSzJwyXBdDnoZctv1ji7HtUy
CD9RXwfWj9CNLLvpbxbqYAV1I9B4eVOQnvgxGiuB29qtAG8A5xBgnIRavRKFN1wi
lCFwEyQN+/NBCveHYYG81WrygRRL0JQZV2pcZG0B9V2VEZGiN1F9LZ+MlTg7NuXG
LC3WWFp8WpT7Jx0iq34BBANZC8lt0C/f6eOHObM=
-----END CERTIFICATE-----
